; Function Attrs: mustprogress nounwind uwtable
define internal void @"_ZN4node13CallbackQueueIvJPNS_11EnvironmentEEE12CallbackImplIZNS_4quic7Session10HandleQlogEjPKvmE3$_0ED2Ev"(ptr nocapture noundef nonnull align 8 dereferenceable(64) %this) unnamed_addr #5 align 2 {
entry:
  %callback_ = getelementptr inbounds i8, ptr %this, i64 24
  %0 = getelementptr inbounds i8, ptr %this, i64 32
  %1 = load ptr, ptr %0, align 8
  %tobool.not.i.i.i.i = icmp eq ptr %1, null
  br i1 %tobool.not.i.i.i.i, label %_ZNSt6vectorIhSaIhEED2Ev.exit.i, label %if.then.i.i.i.i

if.then.i.i.i.i:                                  ; preds = %entry
  tail call void @_ZdlPv(ptr noundef nonnull %1) #33
  br label %_ZNSt6vectorIhSaIhEED2Ev.exit.i

_ZNSt6vectorIhSaIhEED2Ev.exit.i:                  ; preds = %if.then.i.i.i.i, %entry
  %2 = load ptr, ptr %callback_, align 8
  %cmp.not.i.i = icmp eq ptr %2, null
  br i1 %cmp.not.i.i, label %"_ZZN4node4quic7Session10HandleQlogEjPKvmEN3$_0D2Ev.exit", label %if.then.i.i

if.then.i.i:                                      ; preds = %_ZNSt6vectorIhSaIhEED2Ev.exit.i
  tail call void @_ZN4node10BaseObject17decrease_refcountEv(ptr noundef nonnull align 8 dereferenceable(32) %2) #28
  br label %"_ZZN4node4quic7Session10HandleQlogEjPKvmEN3$_0D2Ev.exit"

"_ZZN4node4quic7Session10HandleQlogEjPKvmEN3$_0D2Ev.exit": ; preds = %_ZNSt6vectorIhSaIhEED2Ev.exit.i, %if.then.i.i
  store ptr getelementptr inbounds ({ [5 x ptr] }, ptr @_ZTVN4node13CallbackQueueIvJPNS_11EnvironmentEEE8CallbackE, i64 0, i32 0, i64 2), ptr %this, align 8
  %next_.i = getelementptr inbounds i8, ptr %this, i64 16
  %3 = load ptr, ptr %next_.i, align 8
  %cmp.not.i.i1 = icmp eq ptr %3, null
  br i1 %cmp.not.i.i1, label %_ZN4node13CallbackQueueIvJPNS_11EnvironmentEEE8CallbackD2Ev.exit, label %_ZNKSt14default_deleteIN4node13CallbackQueueIvJPNS0_11EnvironmentEEE8CallbackEEclEPS5_.exit.i.i

_ZNKSt14default_deleteIN4node13CallbackQueueIvJPNS0_11EnvironmentEEE8CallbackEEclEPS5_.exit.i.i: ; preds = %"_ZZN4node4quic7Session10HandleQlogEjPKvmEN3$_0D2Ev.exit"
  %vtable.i.i.i = load ptr, ptr %3, align 8
  %vfn.i.i.i = getelementptr inbounds i8, ptr %vtable.i.i.i, i64 8
  %4 = load ptr, ptr %vfn.i.i.i, align 8
  tail call void %4(ptr noundef nonnull align 8 dereferenceable(24) %3) #28
  br label %_ZN4node13CallbackQueueIvJPNS_11EnvironmentEEE8CallbackD2Ev.exit

_ZN4node13CallbackQueueIvJPNS_11EnvironmentEEE8CallbackD2Ev.exit: ; preds = %"_ZZN4node4quic7Session10HandleQlogEjPKvmEN3$_0D2Ev.exit", %_ZNKSt14default_deleteIN4node13CallbackQueueIvJPNS0_11EnvironmentEEE8CallbackEEclEPS5_.exit.i.i
  store ptr null, ptr %next_.i, align 8
  ret void
}